; Function Attrs: mustprogress nounwind uwtable
define dso_local void @_ZN3net19QuicFixedIPEndPointD2Ev(ptr noundef nonnull align 8 dereferenceable(89) %this) unnamed_addr #7 align 2 {
entry:
  store ptr getelementptr inbounds ({ [6 x ptr] }, ptr @_ZTVN3net19QuicFixedIPEndPointE, i64 0, i32 0, i64 2), ptr %this, align 8
  %receive_value_ = getelementptr inbounds i8, ptr %this, i64 56
  tail call void @_ZN3net10IPEndPointD1Ev(ptr noundef nonnull align 8 dereferenceable(26) %receive_value_) #17
  %send_value_ = getelementptr inbounds i8, ptr %this, i64 16
  tail call void @_ZN3net10IPEndPointD1Ev(ptr noundef nonnull align 8 dereferenceable(26) %send_value_) #17
  ret void
}